target datalayout = "e-m:e-p270:32:32-p271:32:32-p272:64:64-i64:64-i128:128-f80:128-n8:16:32:64-S128"
target triple = "x86_64-pc-linux-gnu"

%struct.expert_field = type { i32, i32 }

@ett_gsm_dtap_elem = hidden global [97 x i32] zeroinitializer, align 16
@hf_gsm_a_dtap_autn = internal global i32 0, align 4
@hf_gsm_a_dtap_autn_sqn_xor_ak = internal global i32 0, align 4
@hf_gsm_a_dtap_autn_amf = internal global i32 0, align 4
@hf_gsm_a_dtap_autn_mac = internal global i32 0, align 4
@ei_gsm_a_dtap_autn = internal global %struct.expert_field zeroinitializer, align 4

; Function Attrs: null_pointer_is_valid sspstrong uwtable
define internal zeroext i16 @de_auth_param_autn(ptr noundef %0, ptr noundef %1, ptr noundef %2, i32 noundef %3, i32 noundef %4, ptr noundef %5, i32 noundef %6) #1 {
  %8 = alloca ptr, align 8
  %9 = alloca ptr, align 8
  %10 = alloca ptr, align 8
  %11 = alloca i32, align 4
  %12 = alloca i32, align 4
  %13 = alloca ptr, align 8
  %14 = alloca i32, align 4
  %15 = alloca ptr, align 8
  %16 = alloca ptr, align 8
  store ptr %0, ptr %8, align 8
  store ptr %1, ptr %9, align 8
  store ptr %2, ptr %10, align 8
  store i32 %3, ptr %11, align 4
  store i32 %4, ptr %12, align 4
  store ptr %5, ptr %13, align 8
  store i32 %6, ptr %14, align 4
  call void @llvm.lifetime.start.p0(i64 8, ptr %15) #7
  call void @llvm.lifetime.start.p0(i64 8, ptr %16) #7
  %17 = load ptr, ptr %9, align 8
  %18 = load i32, ptr @hf_gsm_a_dtap_autn, align 4
  %19 = load ptr, ptr %8, align 8
  %20 = load i32, ptr %11, align 4
  %21 = load i32, ptr %12, align 4
  %22 = call ptr @proto_tree_add_item(ptr noundef %17, i32 noundef %18, ptr noundef %19, i32 noundef %20, i32 noundef %21, i32 noundef 0)
  store ptr %22, ptr %15, align 8
  %23 = load ptr, ptr %15, align 8
  %24 = load i32, ptr getelementptr ([97 x i32], ptr @ett_gsm_dtap_elem, i64 0, i64 1), align 4
  %25 = call ptr @proto_item_add_subtree(ptr noundef %23, i32 noundef %24)
  store ptr %25, ptr %16, align 8
  %26 = load i32, ptr %12, align 4
  %27 = icmp eq i32 %26, 16
  br i1 %27, label %28, label %46

28:                                               ; preds = %7
  %29 = load ptr, ptr %16, align 8
  %30 = load i32, ptr @hf_gsm_a_dtap_autn_sqn_xor_ak, align 4
  %31 = load ptr, ptr %8, align 8
  %32 = load i32, ptr %11, align 4
  %33 = call ptr @proto_tree_add_item(ptr noundef %29, i32 noundef %30, ptr noundef %31, i32 noundef %32, i32 noundef 6, i32 noundef 0)
  %34 = load ptr, ptr %16, align 8
  %35 = load i32, ptr @hf_gsm_a_dtap_autn_amf, align 4
  %36 = load ptr, ptr %8, align 8
  %37 = load i32, ptr %11, align 4
  %38 = add i32 %37, 6
  %39 = call ptr @proto_tree_add_item(ptr noundef %34, i32 noundef %35, ptr noundef %36, i32 noundef %38, i32 noundef 2, i32 noundef 0)
  %40 = load ptr, ptr %16, align 8
  %41 = load i32, ptr @hf_gsm_a_dtap_autn_mac, align 4
  %42 = load ptr, ptr %8, align 8
  %43 = load i32, ptr %11, align 4
  %44 = add i32 %43, 8
  %45 = call ptr @proto_tree_add_item(ptr noundef %40, i32 noundef %41, ptr noundef %42, i32 noundef %44, i32 noundef 8, i32 noundef 0)
  br label %50

46:                                               ; preds = %7
  %47 = load ptr, ptr %10, align 8
  %48 = load ptr, ptr %15, align 8
  %49 = call ptr @expert_add_info(ptr noundef %47, ptr noundef %48, ptr noundef @ei_gsm_a_dtap_autn)
  br label %50

50:                                               ; preds = %46, %28
  %51 = load i32, ptr %12, align 4
  %52 = trunc i32 %51 to i16
  call void @llvm.lifetime.end.p0(i64 8, ptr %16) #7
  call void @llvm.lifetime.end.p0(i64 8, ptr %15) #7
  ret i16 %52
}