; Function Attrs: null_pointer_is_valid sspstrong uwtable
define internal noundef zeroext i16 @de_auth_param_autn(ptr noundef %0, ptr noundef %1, ptr noundef %2, i32 noundef %3, i32 noundef %4, ptr readnone captures(none) %5, i32 %6) #1 {
  %8 = load i32, ptr @hf_gsm_a_dtap_autn, align 4
  %9 = tail call ptr @proto_tree_add_item(ptr noundef %1, i32 noundef %8, ptr noundef %0, i32 noundef %3, i32 noundef %4, i32 noundef 0)
  %10 = load i32, ptr getelementptr inbounds nuw (i8, ptr @ett_gsm_dtap_elem, i64 4), align 4
  %11 = tail call ptr @proto_item_add_subtree(ptr noundef %9, i32 noundef %10)
  %12 = icmp eq i32 %4, 16
  br i1 %12, label %13, label %22

13:                                               ; preds = %7
  %14 = load i32, ptr @hf_gsm_a_dtap_autn_sqn_xor_ak, align 4
  %15 = tail call ptr @proto_tree_add_item(ptr noundef %11, i32 noundef %14, ptr noundef %0, i32 noundef %3, i32 noundef 6, i32 noundef 0)
  %16 = load i32, ptr @hf_gsm_a_dtap_autn_amf, align 4
  %17 = add i32 %3, 6
  %18 = tail call ptr @proto_tree_add_item(ptr noundef %11, i32 noundef %16, ptr noundef %0, i32 noundef %17, i32 noundef 2, i32 noundef 0)
  %19 = load i32, ptr @hf_gsm_a_dtap_autn_mac, align 4
  %20 = add i32 %3, 8
  %21 = tail call ptr @proto_tree_add_item(ptr noundef %11, i32 noundef %19, ptr noundef %0, i32 noundef %20, i32 noundef 8, i32 noundef 0)
  br label %24

22:                                               ; preds = %7
  %23 = tail call ptr @expert_add_info(ptr noundef %2, ptr noundef %9, ptr noundef nonnull @ei_gsm_a_dtap_autn)
  br label %24

24:                                               ; preds = %22, %13
  %25 = trunc i32 %4 to i16
  ret i16 %25
}